; Function Attrs: nounwind uwtable
define ptr @l_Array_forIn_x27Unsafe_loop___at___private_Lean_Meta_CongrTheorems_0__Lean_Meta_shouldUseSubsingletonInst___spec__1(ptr noundef readonly captures(none) %0, ptr readnone captures(none) %1, ptr readnone captures(none) %2, ptr noundef %3, ptr noundef readonly captures(none) %4, i64 noundef %5, i64 noundef %6, ptr noundef %7) local_unnamed_addr #1 {
  %.not59 = icmp ult i64 %6, %5
  br i1 %.not59, label %.lr.ph, label %._crit_edge

.lr.ph:                                           ; preds = %8
  %9 = getelementptr inbounds nuw i8, ptr %4, i64 24
  %10 = getelementptr i8, ptr %0, i64 8
  %11 = getelementptr inbounds nuw i8, ptr %0, i64 24
  br label %22

12:                                               ; preds = %lean_dec.exit33
  %13 = add nuw i64 %.02560, 1
  %exitcond.not = icmp eq i64 %13, %5
  br i1 %exitcond.not, label %._crit_edge, label %22

._crit_edge:                                      ; preds = %12, %8
  %.028.lcssa = phi ptr [ %7, %8 ], [ %3, %12 ]
  %14 = ptrtoint ptr %.028.lcssa to i64
  %15 = and i64 %14, 1
  %.not57 = icmp eq i64 %15, 0
  br i1 %.not57, label %16, label %79

16:                                               ; preds = %._crit_edge
  %.val.i = load i32, ptr %.028.lcssa, align 4, !tbaa !4
  %17 = icmp sgt i32 %.val.i, 0
  br i1 %17, label %18, label %20, !prof !9

18:                                               ; preds = %16
  %19 = add nuw i32 %.val.i, 1
  store i32 %19, ptr %.028.lcssa, align 4, !tbaa !4
  br label %79

20:                                               ; preds = %16
  %.not.i39 = icmp eq i32 %.val.i, 0
  br i1 %.not.i39, label %79, label %21

21:                                               ; preds = %20
  tail call void @lean_inc_ref_cold(ptr noundef nonnull %.028.lcssa) #7
  br label %79

22:                                               ; preds = %.lr.ph, %12
  %.02560 = phi i64 [ %6, %.lr.ph ], [ %13, %12 ]
  %23 = getelementptr inbounds nuw [0 x ptr], ptr %9, i64 0, i64 %.02560
  %24 = load ptr, ptr %23, align 8, !tbaa !10
  %25 = ptrtoint ptr %24 to i64
  %26 = and i64 %25, 1
  %.not.i40 = icmp eq i64 %26, 0
  br i1 %.not.i40, label %27, label %33

27:                                               ; preds = %22
  %.val.i.i = load i32, ptr %24, align 4, !tbaa !4
  %28 = icmp sgt i32 %.val.i.i, 0
  br i1 %28, label %29, label %31, !prof !9

29:                                               ; preds = %27
  %30 = add nuw i32 %.val.i.i, 1
  store i32 %30, ptr %24, align 4, !tbaa !4
  br label %53

31:                                               ; preds = %27
  %.not.i.i = icmp eq i32 %.val.i.i, 0
  br i1 %.not.i.i, label %53, label %32

32:                                               ; preds = %31
  tail call void @lean_inc_ref_cold(ptr noundef nonnull %24) #7
  br label %53

33:                                               ; preds = %22
  %34 = lshr i64 %25, 1
  %.val.i42 = load i64, ptr %10, align 8, !tbaa !16
  %35 = icmp ult i64 %34, %.val.i42
  br i1 %35, label %42, label %lean_array_get.exit.thread48

lean_array_get.exit.thread48:                     ; preds = %33
  %36 = load i8, ptr @l_Lean_Meta_instInhabitedCongrArgKind, align 1, !tbaa !18
  %37 = zext i8 %36 to i64
  %38 = shl nuw nsw i64 %37, 1
  %39 = or disjoint i64 %38, 1
  %40 = inttoptr i64 %39 to ptr
  %41 = tail call ptr @lean_array_get_panic(ptr noundef nonnull %40) #7
  br label %lean_dec.exit34

42:                                               ; preds = %33
  %43 = getelementptr inbounds nuw [0 x ptr], ptr %11, i64 0, i64 %34
  %44 = load ptr, ptr %43, align 8, !tbaa !10
  %45 = ptrtoint ptr %44 to i64
  %46 = and i64 %45, 1
  %.not.i11.i = icmp eq i64 %46, 0
  br i1 %.not.i11.i, label %47, label %lean_dec.exit34

47:                                               ; preds = %42
  %.val.i.i.i = load i32, ptr %44, align 4, !tbaa !4
  %48 = icmp sgt i32 %.val.i.i.i, 0
  br i1 %48, label %49, label %51, !prof !9

49:                                               ; preds = %47
  %50 = add nuw i32 %.val.i.i.i, 1
  store i32 %50, ptr %44, align 4, !tbaa !4
  br label %lean_dec.exit34

51:                                               ; preds = %47
  %.not.i.i.i = icmp eq i32 %.val.i.i.i, 0
  br i1 %.not.i.i.i, label %lean_dec.exit34, label %52

52:                                               ; preds = %51
  tail call void @lean_inc_ref_cold(ptr noundef nonnull %44) #7
  br label %lean_dec.exit34

53:                                               ; preds = %32, %31, %29
  %54 = load i8, ptr @l_Lean_Meta_instInhabitedCongrArgKind, align 1, !tbaa !18
  %55 = zext i8 %54 to i64
  %56 = shl nuw nsw i64 %55, 1
  %57 = or disjoint i64 %56, 1
  %58 = inttoptr i64 %57 to ptr
  %59 = tail call ptr @lean_array_get_panic(ptr noundef nonnull %58) #7
  %60 = load i32, ptr %24, align 4, !tbaa !4
  %61 = icmp sgt i32 %60, 1
  br i1 %61, label %62, label %64, !prof !9

62:                                               ; preds = %53
  %63 = add nsw i32 %60, -1
  store i32 %63, ptr %24, align 4, !tbaa !4
  br label %lean_dec.exit34

64:                                               ; preds = %53
  %.not.i = icmp eq i32 %60, 0
  br i1 %.not.i, label %lean_dec.exit34, label %65

65:                                               ; preds = %64
  tail call void @lean_dec_ref_cold(ptr noundef nonnull %24) #7
  br label %lean_dec.exit34

lean_dec.exit34:                                  ; preds = %52, %51, %49, %42, %65, %64, %62, %lean_array_get.exit.thread48
  %.1.i47 = phi ptr [ %41, %lean_array_get.exit.thread48 ], [ %59, %62 ], [ %59, %64 ], [ %59, %65 ], [ %44, %42 ], [ %44, %49 ], [ %44, %51 ], [ %44, %52 ]
  %66 = ptrtoint ptr %.1.i47 to i64
  %67 = and i64 %66, 1
  %.not56 = icmp eq i64 %67, 0
  br i1 %.not56, label %68, label %lean_dec.exit33

68:                                               ; preds = %lean_dec.exit34
  %69 = load i32, ptr %.1.i47, align 4, !tbaa !4
  %70 = icmp sgt i32 %69, 1
  br i1 %70, label %71, label %73, !prof !9

71:                                               ; preds = %68
  %72 = add nsw i32 %69, -1
  store i32 %72, ptr %.1.i47, align 4, !tbaa !4
  br label %lean_dec.exit33

73:                                               ; preds = %68
  %.not.i35 = icmp eq i32 %69, 0
  br i1 %.not.i35, label %lean_dec.exit33, label %74

74:                                               ; preds = %73
  tail call void @lean_dec_ref_cold(ptr noundef nonnull %.1.i47) #7
  br label %lean_dec.exit33

lean_dec.exit33:                                  ; preds = %74, %73, %71, %lean_dec.exit34
  %75 = and i64 %66, 510
  %76 = icmp eq i64 %75, 4
  br i1 %76, label %77, label %12

77:                                               ; preds = %lean_dec.exit33
  %78 = load ptr, ptr @l_Array_forIn_x27Unsafe_loop___at___private_Lean_Meta_CongrTheorems_0__Lean_Meta_shouldUseSubsingletonInst___spec__1___closed__2, align 8, !tbaa !10
  br label %79

79:                                               ; preds = %77, %21, %20, %18, %._crit_edge
  %.1.ph = phi ptr [ %.028.lcssa, %._crit_edge ], [ %.028.lcssa, %18 ], [ %.028.lcssa, %20 ], [ %.028.lcssa, %21 ], [ %78, %77 ]
  ret ptr %.1.ph
}